target datalayout = "e-m:e-p270:32:32-p271:32:32-p272:64:64-i64:64-i128:128-f80:128-n8:16:32:64-S128"
target triple = "x86_64-pc-linux-gnu"

@.str = private unnamed_addr constant [34 x i8] c"Allocating buffer memory failed.\0A\00", align 1

; Function Attrs: cold nounwind optsize uwtable
define void @ff_bgmc_end(ptr noundef %0, ptr noundef %1) #0 {
  %3 = alloca ptr, align 8
  %4 = alloca ptr, align 8
  store ptr %0, ptr %3, align 8, !tbaa !8
  store ptr %1, ptr %4, align 8, !tbaa !11
  %5 = load ptr, ptr %3, align 8, !tbaa !8
  call void @av_freep(ptr noundef %5)
  %6 = load ptr, ptr %4, align 8, !tbaa !11
  call void @av_freep(ptr noundef %6)
  ret void
}

; Function Attrs: cold nounwind optsize uwtable
define i32 @ff_bgmc_init(ptr noundef %0, ptr noundef %1, ptr noundef %2) #0 {
  %4 = alloca i32, align 4
  %5 = alloca ptr, align 8
  %6 = alloca ptr, align 8
  %7 = alloca ptr, align 8
  store ptr %0, ptr %5, align 8, !tbaa !4
  store ptr %1, ptr %6, align 8, !tbaa !8
  store ptr %2, ptr %7, align 8, !tbaa !11
  %8 = call noalias ptr @av_malloc(i64 noundef 4096)
  %9 = load ptr, ptr %6, align 8, !tbaa !8
  store ptr %8, ptr %9, align 8, !tbaa !13
  %10 = call noalias ptr @av_malloc(i64 noundef 16)
  %11 = load ptr, ptr %7, align 8, !tbaa !11
  store ptr %10, ptr %11, align 8, !tbaa !15
  %12 = load ptr, ptr %6, align 8, !tbaa !8
  %13 = load ptr, ptr %12, align 8, !tbaa !13
  %14 = icmp ne ptr %13, null
  br i1 %14, label %15, label %19

15:                                               ; preds = %3
  %16 = load ptr, ptr %7, align 8, !tbaa !11
  %17 = load ptr, ptr %16, align 8, !tbaa !15
  %18 = icmp ne ptr %17, null
  br i1 %18, label %23, label %19

19:                                               ; preds = %15, %3
  %20 = load ptr, ptr %6, align 8, !tbaa !8
  %21 = load ptr, ptr %7, align 8, !tbaa !11
  call void @ff_bgmc_end(ptr noundef %20, ptr noundef %21)
  %22 = load ptr, ptr %5, align 8, !tbaa !4
  call void (ptr, i32, ptr, ...) @av_log(ptr noundef %22, i32 noundef 16, ptr noundef @.str)
  store i32 -12, ptr %4, align 4
  br label %27

23:                                               ; preds = %15
  %24 = load ptr, ptr %7, align 8, !tbaa !11
  %25 = load ptr, ptr %24, align 8, !tbaa !15
  call void @llvm.memset.p0.i64(ptr align 4 %25, i8 -1, i64 16, i1 false)
  br label %26

26:                                               ; preds = %23
  store i32 0, ptr %4, align 4
  br label %27

27:                                               ; preds = %26, %19
  %28 = load i32, ptr %4, align 4
  ret i32 %28
}