; Function Attrs: cold nounwind optsize uwtable
define range(i32 -12, 1) i32 @ff_bgmc_init(ptr noundef %0, ptr noundef initializes((0, 8)) %1, ptr noundef initializes((0, 8)) %2) local_unnamed_addr #0 {
  %4 = tail call noalias ptr @av_malloc(i64 noundef 4096) #7
  store ptr %4, ptr %1, align 8, !tbaa !4
  %5 = tail call noalias ptr @av_malloc(i64 noundef 16) #7
  store ptr %5, ptr %2, align 8, !tbaa !9
  %6 = load ptr, ptr %1, align 8, !tbaa !4
  %.not = icmp eq ptr %6, null
  %.not9 = icmp eq ptr %5, null
  %or.cond = select i1 %.not, i1 true, i1 %.not9
  br i1 %or.cond, label %7, label %8

7:                                                ; preds = %3
  tail call void @av_freep(ptr noundef nonnull %1) #7
  tail call void @av_freep(ptr noundef nonnull %2) #7
  tail call void (ptr, i32, ptr, ...) @av_log(ptr noundef %0, i32 noundef 16, ptr noundef nonnull @.str) #7
  br label %9

8:                                                ; preds = %3
  tail call void @llvm.memset.p0.i64(ptr noundef nonnull align 4 dereferenceable(16) %5, i8 -1, i64 16, i1 false)
  br label %9

9:                                                ; preds = %8, %7
  %.0 = phi i32 [ 0, %8 ], [ -12, %7 ]
  ret i32 %.0
}